target datalayout = "e-m:e-p270:32:32-p271:32:32-p272:64:64-i64:64-i128:128-f80:128-n8:16:32:64-S128"
target triple = "x86_64-pc-linux-gnu"

%struct.expert_field = type { i32, i32 }

@hf_megaco_error_descriptor = internal global i32 0, align 4
@hf_megaco_error_code = internal global i32 0, align 4
@hf_megaco_error_string = internal global i32 0, align 4
@ett_megaco_error_descriptor = internal global i32 0, align 4
@ei_megaco_error_code_invalid = internal global %struct.expert_field zeroinitializer, align 4
@g_ascii_table = external constant ptr, align 8

; Function Attrs: null_pointer_is_valid sspstrong uwtable
define internal i32 @megaco_tvb_skip_wsp(ptr noundef %0, i32 noundef %1) #0 {
  %3 = alloca ptr, align 8
  %4 = alloca i32, align 4
  %5 = alloca i32, align 4
  %6 = alloca i32, align 4
  store ptr %0, ptr %3, align 8
  store i32 %1, ptr %4, align 4
  call void @llvm.lifetime.start.p0(i64 4, ptr %5) #12
  %7 = load i32, ptr %4, align 4
  store i32 %7, ptr %5, align 4
  call void @llvm.lifetime.start.p0(i64 4, ptr %6) #12
  %8 = load ptr, ptr %3, align 8
  %9 = call i32 @tvb_reported_length(ptr noundef %8)
  store i32 %9, ptr %6, align 4
  %10 = load i32, ptr %4, align 4
  store i32 %10, ptr %5, align 4
  br label %11

11:                                               ; preds = %29, %2
  %12 = load i32, ptr %5, align 4
  %13 = load i32, ptr %6, align 4
  %14 = icmp slt i32 %12, %13
  br i1 %14, label %15, label %26

15:                                               ; preds = %11
  %16 = load ptr, ptr @g_ascii_table, align 8
  %17 = load ptr, ptr %3, align 8
  %18 = load i32, ptr %5, align 4
  %19 = call zeroext i8 @tvb_get_uint8(ptr noundef %17, i32 noundef %18)
  %20 = zext i8 %19 to i64
  %21 = getelementptr i16, ptr %16, i64 %20
  %22 = load i16, ptr %21, align 2
  %23 = zext i16 %22 to i32
  %24 = and i32 %23, 256
  %25 = icmp ne i32 %24, 0
  br label %26

26:                                               ; preds = %15, %11
  %27 = phi i1 [ false, %11 ], [ %25, %15 ]
  br i1 %27, label %28, label %32

28:                                               ; preds = %26
  br label %29

29:                                               ; preds = %28
  %30 = load i32, ptr %5, align 4
  %31 = add i32 %30, 1
  store i32 %31, ptr %5, align 4
  br label %11, !llvm.loop !16

32:                                               ; preds = %26
  %33 = load i32, ptr %5, align 4
  call void @llvm.lifetime.end.p0(i64 4, ptr %6) #12
  call void @llvm.lifetime.end.p0(i64 4, ptr %5) #12
  ret i32 %33
}

; Function Attrs: null_pointer_is_valid sspstrong uwtable
define internal void @dissect_megaco_errordescriptor(ptr noundef %0, ptr noundef %1, ptr noundef %2, i32 noundef %3, i32 noundef %4) #0 {
  %6 = alloca ptr, align 8
  %7 = alloca ptr, align 8
  %8 = alloca ptr, align 8
  %9 = alloca i32, align 4
  %10 = alloca i32, align 4
  %11 = alloca i32, align 4
  %12 = alloca i32, align 4
  %13 = alloca [4 x i8], align 1
  %14 = alloca i32, align 4
  %15 = alloca ptr, align 8
  %16 = alloca ptr, align 8
  %17 = alloca i8, align 1
  store ptr %0, ptr %6, align 8
  store ptr %1, ptr %7, align 8
  store ptr %2, ptr %8, align 8
  store i32 %3, ptr %9, align 4
  store i32 %4, ptr %10, align 4
  call void @llvm.lifetime.start.p0(i64 4, ptr %11) #12
  call void @llvm.lifetime.start.p0(i64 4, ptr %12) #12
  call void @llvm.lifetime.start.p0(i64 4, ptr %13) #12
  call void @llvm.lifetime.start.p0(i64 4, ptr %14) #12
  call void @llvm.lifetime.start.p0(i64 8, ptr %15) #12
  call void @llvm.lifetime.start.p0(i64 8, ptr %16) #12
  call void @llvm.lifetime.start.p0(i64 1, ptr %17) #12
  %18 = load ptr, ptr %6, align 8
  %19 = load i32, ptr %10, align 4
  %20 = load i32, ptr %9, align 4
  %21 = call i32 @tvb_find_uint8(ptr noundef %18, i32 noundef %19, i32 noundef %20, i8 noundef zeroext 61)
  store i32 %21, ptr %14, align 4
  %22 = load ptr, ptr %6, align 8
  %23 = load i32, ptr %14, align 4
  %24 = add i32 %23, 1
  %25 = call i32 @megaco_tvb_skip_wsp(ptr noundef %22, i32 noundef %24)
  store i32 %25, ptr %14, align 4
  %26 = load i32, ptr %9, align 4
  %27 = load i32, ptr %10, align 4
  %28 = sub i32 %26, %27
  %29 = add i32 %28, 1
  store i32 %29, ptr %11, align 4
  %30 = load ptr, ptr %8, align 8
  %31 = load i32, ptr @hf_megaco_error_descriptor, align 4
  %32 = load ptr, ptr %6, align 8
  %33 = load i32, ptr %10, align 4
  %34 = load i32, ptr %11, align 4
  %35 = call ptr @proto_tree_add_item(ptr noundef %30, i32 noundef %31, ptr noundef %32, i32 noundef %33, i32 noundef %34, i32 noundef 0)
  store ptr %35, ptr %15, align 8
  %36 = load ptr, ptr %15, align 8
  %37 = load i32, ptr @ett_megaco_error_descriptor, align 4
  %38 = call ptr @proto_item_add_subtree(ptr noundef %36, i32 noundef %37)
  store ptr %38, ptr %16, align 8
  %39 = load ptr, ptr %6, align 8
  %40 = load i32, ptr %14, align 4
  %41 = getelementptr inbounds [4 x i8], ptr %13, i64 0, i64 0
  %42 = call i32 @tvb_get_raw_bytes_as_stringz(ptr noundef %39, i32 noundef %40, i32 noundef 4, ptr noundef %41)
  %43 = getelementptr inbounds [4 x i8], ptr %13, i64 0, i64 0
  %44 = call zeroext i1 @ws_strtoi32(ptr noundef %43, ptr noundef null, ptr noundef %12)
  %45 = zext i1 %44 to i8
  store i8 %45, ptr %17, align 1
  %46 = load ptr, ptr %16, align 8
  %47 = load i32, ptr @hf_megaco_error_code, align 4
  %48 = load ptr, ptr %6, align 8
  %49 = load i32, ptr %14, align 4
  %50 = load i32, ptr %12, align 4
  %51 = call ptr @proto_tree_add_uint(ptr noundef %46, i32 noundef %47, ptr noundef %48, i32 noundef %49, i32 noundef 3, i32 noundef %50)
  store ptr %51, ptr %15, align 8
  %52 = load i8, ptr %17, align 1, !range !6, !noundef !7
  %53 = trunc i8 %52 to i1
  br i1 %53, label %58, label %54

54:                                               ; preds = %5
  %55 = load ptr, ptr %7, align 8
  %56 = load ptr, ptr %15, align 8
  %57 = call ptr @expert_add_info(ptr noundef %55, ptr noundef %56, ptr noundef @ei_megaco_error_code_invalid)
  br label %58

58:                                               ; preds = %54, %5
  %59 = load ptr, ptr %6, align 8
  %60 = load i32, ptr %14, align 4
  %61 = load i32, ptr %9, align 4
  %62 = call i32 @tvb_find_uint8(ptr noundef %59, i32 noundef %60, i32 noundef %61, i8 noundef zeroext 34)
  store i32 %62, ptr %10, align 4
  %63 = load ptr, ptr %6, align 8
  %64 = load i32, ptr %10, align 4
  %65 = add i32 %64, 1
  %66 = load i32, ptr %9, align 4
  %67 = call i32 @tvb_find_uint8(ptr noundef %63, i32 noundef %65, i32 noundef %66, i8 noundef zeroext 34)
  store i32 %67, ptr %14, align 4
  %68 = load i32, ptr %14, align 4
  %69 = load i32, ptr %10, align 4
  %70 = sub i32 %68, %69
  %71 = sub i32 %70, 1
  store i32 %71, ptr %11, align 4
  %72 = load ptr, ptr %16, align 8
  %73 = load i32, ptr @hf_megaco_error_string, align 4
  %74 = load ptr, ptr %6, align 8
  %75 = load i32, ptr %10, align 4
  %76 = add i32 %75, 1
  %77 = load i32, ptr %11, align 4
  %78 = call ptr @proto_tree_add_item(ptr noundef %72, i32 noundef %73, ptr noundef %74, i32 noundef %76, i32 noundef %77, i32 noundef 2)
  call void @llvm.lifetime.end.p0(i64 1, ptr %17) #12
  call void @llvm.lifetime.end.p0(i64 8, ptr %16) #12
  call void @llvm.lifetime.end.p0(i64 8, ptr %15) #12
  call void @llvm.lifetime.end.p0(i64 4, ptr %14) #12
  call void @llvm.lifetime.end.p0(i64 4, ptr %13) #12
  call void @llvm.lifetime.end.p0(i64 4, ptr %12) #12
  call void @llvm.lifetime.end.p0(i64 4, ptr %11) #12
  ret void
}