; Function Attrs: null_pointer_is_valid sspstrong uwtable
define internal fastcc void @dissect_megaco_errordescriptor(ptr noundef %0, ptr noundef %1, ptr noundef %2, i32 noundef %3, i32 noundef %4) unnamed_addr #0 {
  %6 = alloca i32, align 4
  %7 = alloca [4 x i8], align 1
  call void @llvm.lifetime.start.p0(i64 4, ptr nonnull %6) #11
  call void @llvm.lifetime.start.p0(i64 4, ptr nonnull %7) #11
  %8 = tail call i32 @tvb_find_uint8(ptr noundef %0, i32 noundef %4, i32 noundef %3, i8 noundef zeroext 61)
  %9 = add i32 %8, 1
  %10 = tail call i32 @tvb_reported_length(ptr noundef %0)
  %11 = icmp slt i32 %9, %10
  br i1 %11, label %.lr.ph.i, label %megaco_tvb_skip_wsp.exit

.lr.ph.i:                                         ; preds = %5
  %12 = load ptr, ptr @g_ascii_table, align 8
  br label %13

13:                                               ; preds = %19, %.lr.ph.i
  %.08.i = phi i32 [ %9, %.lr.ph.i ], [ %20, %19 ]
  %14 = tail call zeroext i8 @tvb_get_uint8(ptr noundef %0, i32 noundef %.08.i)
  %15 = zext i8 %14 to i64
  %16 = getelementptr i16, ptr %12, i64 %15
  %17 = load i16, ptr %16, align 2
  %18 = and i16 %17, 256
  %.not.i = icmp eq i16 %18, 0
  br i1 %.not.i, label %megaco_tvb_skip_wsp.exit, label %19

19:                                               ; preds = %13
  %20 = add i32 %.08.i, 1
  %exitcond.not.i = icmp eq i32 %20, %10
  br i1 %exitcond.not.i, label %megaco_tvb_skip_wsp.exit, label %13, !llvm.loop !8

megaco_tvb_skip_wsp.exit:                         ; preds = %13, %19, %5
  %.0.lcssa.i = phi i32 [ %9, %5 ], [ %.08.i, %13 ], [ %10, %19 ]
  %21 = add i32 %3, 1
  %22 = sub i32 %21, %4
  %23 = load i32, ptr @hf_megaco_error_descriptor, align 4
  %24 = tail call ptr @proto_tree_add_item(ptr noundef %2, i32 noundef %23, ptr noundef %0, i32 noundef %4, i32 noundef %22, i32 noundef 0)
  %25 = load i32, ptr @ett_megaco_error_descriptor, align 4
  %26 = tail call ptr @proto_item_add_subtree(ptr noundef %24, i32 noundef %25)
  %27 = call i32 @tvb_get_raw_bytes_as_stringz(ptr noundef %0, i32 noundef %.0.lcssa.i, i32 noundef 4, ptr noundef nonnull %7)
  %28 = call zeroext i1 @ws_strtoi32(ptr noundef nonnull %7, ptr noundef null, ptr noundef nonnull %6)
  %29 = load i32, ptr @hf_megaco_error_code, align 4
  %30 = load i32, ptr %6, align 4
  %31 = call ptr @proto_tree_add_uint(ptr noundef %26, i32 noundef %29, ptr noundef %0, i32 noundef %.0.lcssa.i, i32 noundef 3, i32 noundef %30)
  br i1 %28, label %34, label %32

32:                                               ; preds = %megaco_tvb_skip_wsp.exit
  %33 = call ptr @expert_add_info(ptr noundef %1, ptr noundef %31, ptr noundef nonnull @ei_megaco_error_code_invalid)
  br label %34

34:                                               ; preds = %32, %megaco_tvb_skip_wsp.exit
  %35 = call i32 @tvb_find_uint8(ptr noundef %0, i32 noundef %.0.lcssa.i, i32 noundef %3, i8 noundef zeroext 34)
  %36 = add i32 %35, 1
  %37 = call i32 @tvb_find_uint8(ptr noundef %0, i32 noundef %36, i32 noundef %3, i8 noundef zeroext 34)
  %38 = xor i32 %35, -1
  %39 = add i32 %37, %38
  %40 = load i32, ptr @hf_megaco_error_string, align 4
  %41 = call ptr @proto_tree_add_item(ptr noundef %26, i32 noundef %40, ptr noundef %0, i32 noundef %36, i32 noundef %39, i32 noundef 2)
  call void @llvm.lifetime.end.p0(i64 4, ptr nonnull %7) #11
  call void @llvm.lifetime.end.p0(i64 4, ptr nonnull %6) #11
  ret void
}